; Function Attrs: nounwind uwtable
define void @gvrender_polygon(ptr noundef %0, ptr noundef %1, i64 noundef %2, i32 noundef %3) local_unnamed_addr #0 {
  %5 = alloca %struct.color_s, align 8
  call void @llvm.lifetime.start.p0(i64 40, ptr nonnull %5)
  %6 = getelementptr inbounds nuw i8, ptr %0, i64 120
  %7 = load ptr, ptr %6, align 8, !tbaa !47
  %.not = icmp eq ptr %7, null
  br i1 %.not, label %81, label %8

8:                                                ; preds = %4
  %9 = getelementptr inbounds nuw i8, ptr %7, i64 200
  %10 = load ptr, ptr %9, align 8, !tbaa !128
  %.not29 = icmp eq ptr %10, null
  br i1 %.not29, label %81, label %11

11:                                               ; preds = %8
  %12 = getelementptr inbounds nuw i8, ptr %0, i64 32
  %13 = load ptr, ptr %12, align 8, !tbaa !107
  %14 = getelementptr inbounds nuw i8, ptr %13, i64 168
  %15 = load i32, ptr %14, align 8, !tbaa !108
  %.not30 = icmp eq i32 %15, 0
  br i1 %.not30, label %81, label %16

16:                                               ; preds = %11
  %17 = and i32 %3, 4
  %.not31 = icmp eq i32 %17, 0
  br i1 %.not31, label %22, label %18

18:                                               ; preds = %16
  %19 = and i32 %3, -5
  %20 = getelementptr inbounds nuw i8, ptr %13, i64 32
  call void @llvm.memcpy.p0.p0.i64(ptr noundef nonnull align 8 dereferenceable(40) %5, ptr noundef nonnull align 8 dereferenceable(40) %20, i64 40, i1 false), !tbaa.struct !129
  %21 = getelementptr inbounds nuw i8, ptr %13, i64 72
  tail call void @llvm.memcpy.p0.p0.i64(ptr noundef nonnull align 8 dereferenceable(40) %20, ptr noundef nonnull align 8 dereferenceable(40) %21, i64 40, i1 false), !tbaa.struct !129
  br label %22

22:                                               ; preds = %18, %16
  %.0 = phi i32 [ %19, %18 ], [ %3, %16 ]
  %23 = getelementptr inbounds nuw i8, ptr %0, i64 280
  %24 = load i32, ptr %23, align 8, !tbaa !46
  %25 = and i32 %24, 8192
  %.not32 = icmp eq i32 %25, 0
  br i1 %.not32, label %28, label %26

26:                                               ; preds = %22
  %27 = load ptr, ptr %9, align 8, !tbaa !128
  tail call void %27(ptr noundef nonnull %0, ptr noundef %1, i64 noundef %2, i32 noundef %.0) #22
  br label %77

28:                                               ; preds = %22
  %.not.i = icmp eq i64 %2, 0
  br i1 %.not.i, label %.thread.i, label %30

.thread.i:                                        ; preds = %28
  %29 = tail call noalias ptr @calloc(i64 noundef 0, i64 noundef 16) #24
  br label %gv_calloc.exit

30:                                               ; preds = %28
  %mul.ov.i = icmp ugt i64 %2, 1152921504606846975
  br i1 %mul.ov.i, label %31, label %34

31:                                               ; preds = %30
  %32 = load ptr, ptr @stderr, align 8, !tbaa !131
  %33 = tail call i32 (ptr, ptr, ...) @fprintf(ptr noundef %32, ptr noundef nonnull @.str.14, i64 noundef %2, i64 noundef 16) #25
  tail call fastcc void @graphviz_exit() #26
  unreachable

34:                                               ; preds = %30
  %35 = tail call noalias ptr @calloc(i64 noundef %2, i64 noundef 16) #24
  %36 = icmp eq ptr %35, null
  br i1 %36, label %37, label %gv_calloc.exit

37:                                               ; preds = %34
  %38 = load ptr, ptr @stderr, align 8, !tbaa !131
  %39 = shl nuw i64 %2, 4
  %40 = tail call i32 (ptr, ptr, ...) @fprintf(ptr noundef %38, ptr noundef nonnull @.str.15, i64 noundef %39) #25
  tail call fastcc void @graphviz_exit() #26
  unreachable

gv_calloc.exit:                                   ; preds = %.thread.i, %34
  %41 = phi ptr [ %29, %.thread.i ], [ %35, %34 ]
  %42 = getelementptr inbounds nuw i8, ptr %0, i64 632
  %.sroa.014.0.copyload.i = load double, ptr %42, align 8, !tbaa !70
  %.sroa.516.0..sroa_idx.i = getelementptr inbounds nuw i8, ptr %0, i64 640
  %.sroa.516.0.copyload.i = load double, ptr %.sroa.516.0..sroa_idx.i, align 8, !tbaa !70
  %43 = getelementptr inbounds nuw i8, ptr %0, i64 480
  %44 = load double, ptr %43, align 8, !tbaa !71
  %45 = getelementptr inbounds nuw i8, ptr %0, i64 648
  %46 = load double, ptr %45, align 8, !tbaa !72
  %47 = fmul double %44, %46
  %48 = getelementptr inbounds nuw i8, ptr %0, i64 656
  %49 = load double, ptr %48, align 8, !tbaa !73
  %50 = fmul double %44, %49
  %51 = getelementptr inbounds nuw i8, ptr %0, i64 488
  %52 = load i32, ptr %51, align 8, !tbaa !74
  %.not.i34 = icmp eq i32 %52, 0
  br i1 %.not.i34, label %.preheader.i, label %.preheader36.i

.preheader36.i:                                   ; preds = %gv_calloc.exit
  br i1 %.not.i, label %gvrender_ptf_A.exit, label %.lr.ph.i

.preheader.i:                                     ; preds = %gv_calloc.exit
  br i1 %.not.i, label %gvrender_ptf_A.exit, label %.lr.ph40.i

.lr.ph.i:                                         ; preds = %.preheader36.i, %.lr.ph.i
  %.03538.i = phi i64 [ %64, %.lr.ph.i ], [ 0, %.preheader36.i ]
  %53 = getelementptr inbounds nuw %struct.pointf_s, ptr %1, i64 %.03538.i
  %54 = getelementptr inbounds nuw i8, ptr %53, i64 8
  %55 = load double, ptr %54, align 8, !tbaa !75
  %56 = fadd double %.sroa.516.0.copyload.i, %55
  %57 = fneg double %56
  %58 = fmul double %47, %57
  %59 = load double, ptr %53, align 8, !tbaa !76
  %60 = fadd double %.sroa.014.0.copyload.i, %59
  %61 = fmul double %50, %60
  %62 = getelementptr inbounds nuw %struct.pointf_s, ptr %41, i64 %.03538.i
  %63 = getelementptr inbounds nuw i8, ptr %62, i64 8
  store double %61, ptr %63, align 8, !tbaa !75
  store double %58, ptr %62, align 8, !tbaa !76
  %64 = add nuw i64 %.03538.i, 1
  %exitcond.not.i = icmp eq i64 %64, %2
  br i1 %exitcond.not.i, label %gvrender_ptf_A.exit, label %.lr.ph.i, !llvm.loop !77

.lr.ph40.i:                                       ; preds = %.preheader.i, %.lr.ph40.i
  %.039.i = phi i64 [ %75, %.lr.ph40.i ], [ 0, %.preheader.i ]
  %65 = getelementptr inbounds nuw %struct.pointf_s, ptr %1, i64 %.039.i
  %66 = load double, ptr %65, align 8, !tbaa !76
  %67 = fadd double %.sroa.014.0.copyload.i, %66
  %68 = fmul double %47, %67
  %69 = getelementptr inbounds nuw %struct.pointf_s, ptr %41, i64 %.039.i
  store double %68, ptr %69, align 8, !tbaa !76
  %70 = getelementptr inbounds nuw i8, ptr %65, i64 8
  %71 = load double, ptr %70, align 8, !tbaa !75
  %72 = fadd double %.sroa.516.0.copyload.i, %71
  %73 = fmul double %50, %72
  %74 = getelementptr inbounds nuw i8, ptr %69, i64 8
  store double %73, ptr %74, align 8, !tbaa !75
  %75 = add nuw i64 %.039.i, 1
  %exitcond44.not.i = icmp eq i64 %75, %2
  br i1 %exitcond44.not.i, label %gvrender_ptf_A.exit, label %.lr.ph40.i, !llvm.loop !79

gvrender_ptf_A.exit:                              ; preds = %.lr.ph.i, %.lr.ph40.i, %.preheader36.i, %.preheader.i
  %76 = load ptr, ptr %9, align 8, !tbaa !128
  tail call void %76(ptr noundef %0, ptr noundef %41, i64 noundef %2, i32 noundef %.0) #22
  tail call void @free(ptr noundef %41) #22
  br label %77

77:                                               ; preds = %gvrender_ptf_A.exit, %26
  br i1 %.not31, label %81, label %78

78:                                               ; preds = %77
  %79 = load ptr, ptr %12, align 8, !tbaa !107
  %80 = getelementptr inbounds nuw i8, ptr %79, i64 32
  call void @llvm.memcpy.p0.p0.i64(ptr noundef nonnull align 8 dereferenceable(40) %80, ptr noundef nonnull align 8 dereferenceable(40) %5, i64 40, i1 false), !tbaa.struct !129
  br label %81

81:                                               ; preds = %8, %11, %78, %77, %4
  call void @llvm.lifetime.end.p0(i64 40, ptr nonnull %5)
  ret void
}